; Function Attrs: mustprogress nounwind uwtable
define hidden void @_ZN7datalog16product_relationD2Ev(ptr noundef nonnull align 8 captures(none) dereferenceable(48) initializes((0, 8)) %0) unnamed_addr #9 align 2 personality ptr @__gxx_personality_v0 {
  store ptr getelementptr inbounds nuw inrange(-16, 160) (i8, ptr @_ZTVN7datalog16product_relationE, i64 16), ptr %0, align 8, !tbaa !17
  %2 = getelementptr inbounds nuw i8, ptr %0, i64 32
  %3 = load ptr, ptr %2, align 8, !tbaa !89
  %4 = icmp eq ptr %3, null
  br i1 %4, label %._crit_edge, label %_ZNK6vectorIPN7datalog13relation_baseELb0EjE4sizeEv.exit

_ZNK6vectorIPN7datalog13relation_baseELb0EjE4sizeEv.exit: ; preds = %1
  %5 = getelementptr inbounds i8, ptr %3, i64 -4
  %6 = load i32, ptr %5, align 4, !tbaa !39
  %.not = icmp eq i32 %6, 0
  br i1 %.not, label %._crit_edge, label %.lr.ph.preheader

.lr.ph.preheader:                                 ; preds = %_ZNK6vectorIPN7datalog13relation_baseELb0EjE4sizeEv.exit
  %wide.trip.count = zext i32 %6 to i64
  br label %.lr.ph

._crit_edge:                                      ; preds = %33, %1, %_ZNK6vectorIPN7datalog13relation_baseELb0EjE4sizeEv.exit
  %7 = getelementptr inbounds nuw i8, ptr %0, i64 40
  %8 = load ptr, ptr %7, align 8, !tbaa !21
  %.not.i.i = icmp eq ptr %8, null
  br i1 %.not.i.i, label %_ZN6vectorIiLb0EjED2Ev.exit, label %9

9:                                                ; preds = %._crit_edge
  %10 = getelementptr inbounds i8, ptr %8, i64 -8
  invoke void @_ZN6memory10deallocateEPv(ptr noundef nonnull %10)
          to label %_ZN6vectorIiLb0EjED2Ev.exit unwind label %11

11:                                               ; preds = %9
  %12 = landingpad { ptr, i32 }
          catch ptr null
  %13 = extractvalue { ptr, i32 } %12, 0
  tail call void @__clang_call_terminate(ptr %13) #28
  unreachable

_ZN6vectorIiLb0EjED2Ev.exit:                      ; preds = %._crit_edge, %9
  %14 = load ptr, ptr %2, align 8, !tbaa !89
  %.not.i.i4 = icmp eq ptr %14, null
  br i1 %.not.i.i4, label %_ZN6vectorIPN7datalog13relation_baseELb0EjED2Ev.exit, label %15

15:                                               ; preds = %_ZN6vectorIiLb0EjED2Ev.exit
  %16 = getelementptr inbounds i8, ptr %14, i64 -8
  invoke void @_ZN6memory10deallocateEPv(ptr noundef nonnull %16)
          to label %_ZN6vectorIPN7datalog13relation_baseELb0EjED2Ev.exit unwind label %17

17:                                               ; preds = %15
  %18 = landingpad { ptr, i32 }
          catch ptr null
  %19 = extractvalue { ptr, i32 } %18, 0
  tail call void @__clang_call_terminate(ptr %19) #28
  unreachable

_ZN6vectorIPN7datalog13relation_baseELb0EjED2Ev.exit: ; preds = %_ZN6vectorIiLb0EjED2Ev.exit, %15
  store ptr getelementptr inbounds nuw inrange(-16, 128) (i8, ptr @_ZTVN7datalog17tr_infrastructureINS_15relation_traitsEE13base_ancestorE, i64 16), ptr %0, align 8, !tbaa !17
  %20 = getelementptr inbounds nuw i8, ptr %0, i64 16
  %21 = load ptr, ptr %20, align 8, !tbaa !125
  %.not.i.i.i = icmp eq ptr %21, null
  br i1 %.not.i.i.i, label %_ZN7datalog17tr_infrastructureINS_15relation_traitsEE13base_ancestorD2Ev.exit, label %22

22:                                               ; preds = %_ZN6vectorIPN7datalog13relation_baseELb0EjED2Ev.exit
  %23 = getelementptr inbounds i8, ptr %21, i64 -8
  invoke void @_ZN6memory10deallocateEPv(ptr noundef nonnull %23)
          to label %_ZN7datalog17tr_infrastructureINS_15relation_traitsEE13base_ancestorD2Ev.exit unwind label %24

24:                                               ; preds = %22
  %25 = landingpad { ptr, i32 }
          catch ptr null
  %26 = extractvalue { ptr, i32 } %25, 0
  tail call void @__clang_call_terminate(ptr %26) #28
  unreachable

_ZN7datalog17tr_infrastructureINS_15relation_traitsEE13base_ancestorD2Ev.exit: ; preds = %_ZN6vectorIPN7datalog13relation_baseELb0EjED2Ev.exit, %22
  ret void

.lr.ph:                                           ; preds = %.lr.ph.preheader, %33
  %indvars.iv = phi i64 [ 0, %.lr.ph.preheader ], [ %indvars.iv.next, %33 ]
  %27 = load ptr, ptr %2, align 8, !tbaa !89
  %28 = getelementptr inbounds nuw ptr, ptr %27, i64 %indvars.iv
  %29 = load ptr, ptr %28, align 8, !tbaa !92
  %30 = load ptr, ptr %29, align 8, !tbaa !17
  %31 = getelementptr inbounds nuw i8, ptr %30, i64 16
  %32 = load ptr, ptr %31, align 8
  invoke void %32(ptr noundef nonnull align 8 dereferenceable(28) %29)
          to label %33 unwind label %34

33:                                               ; preds = %.lr.ph
  %indvars.iv.next = add nuw nsw i64 %indvars.iv, 1
  %exitcond.not = icmp eq i64 %indvars.iv.next, %wide.trip.count
  br i1 %exitcond.not, label %._crit_edge, label %.lr.ph, !llvm.loop !171

34:                                               ; preds = %.lr.ph
  %35 = landingpad { ptr, i32 }
          catch ptr null
  %36 = extractvalue { ptr, i32 } %35, 0
  tail call void @__clang_call_terminate(ptr %36) #28
  unreachable
}